target datalayout = "e-m:e-p270:32:32-p271:32:32-p272:64:64-i64:64-i128:128-f80:128-n8:16:32:64-S128"
target triple = "x86_64-pc-linux-gnu"

%struct.tm = type { i32, i32, i32, i32, i32, i32, i32, i32, i32, i64, ptr }
%struct.luaL_Buffer = type { ptr, i64, i64, ptr, %union.anon }
%union.anon = type { double, [1016 x i8] }

@.str.11 = private unnamed_addr constant [3 x i8] c"%c\00", align 1
@.str.12 = private unnamed_addr constant [55 x i8] c"date result cannot be represented in this installation\00", align 1
@.str.13 = private unnamed_addr constant [3 x i8] c"*t\00", align 1
@.str.14 = private unnamed_addr constant [19 x i8] c"time out-of-bounds\00", align 1
@.str.24 = private unnamed_addr constant [78 x i8] c"aAbBcCdDeFgGhHIjmMnprRStTuUVwWxXyYzZ%||EcECExEXEyEYOdOeOHOIOmOMOSOuOUOVOwOWOy\00", align 1
@.str.25 = private unnamed_addr constant [36 x i8] c"invalid conversion specifier '%%%s'\00", align 1

; Function Attrs: nounwind uwtable
define internal ptr @checkoption(ptr noundef %0, ptr noundef %1, i64 noundef %2, ptr noundef %3) #0 {
  %5 = alloca ptr, align 8
  %6 = alloca ptr, align 8
  %7 = alloca ptr, align 8
  %8 = alloca i64, align 8
  %9 = alloca ptr, align 8
  %10 = alloca ptr, align 8
  %11 = alloca i32, align 4
  %12 = alloca i32, align 4
  store ptr %0, ptr %6, align 8, !tbaa !4
  store ptr %1, ptr %7, align 8, !tbaa !9
  store i64 %2, ptr %8, align 8, !tbaa !11
  store ptr %3, ptr %9, align 8, !tbaa !9
  call void @llvm.lifetime.start.p0(i64 8, ptr %10) #9
  store ptr @.str.24, ptr %10, align 8, !tbaa !9
  call void @llvm.lifetime.start.p0(i64 4, ptr %11) #9
  store i32 1, ptr %11, align 4, !tbaa !20
  br label %13

13:                                               ; preds = %55, %4
  %14 = load ptr, ptr %10, align 8, !tbaa !9
  %15 = load i8, ptr %14, align 1, !tbaa !13
  %16 = sext i8 %15 to i32
  %17 = icmp ne i32 %16, 0
  br i1 %17, label %18, label %23

18:                                               ; preds = %13
  %19 = load i32, ptr %11, align 4, !tbaa !20
  %20 = zext i32 %19 to i64
  %21 = load i64, ptr %8, align 8, !tbaa !11
  %22 = icmp sle i64 %20, %21
  br label %23

23:                                               ; preds = %18, %13
  %24 = phi i1 [ false, %13 ], [ %22, %18 ]
  br i1 %24, label %25, label %60

25:                                               ; preds = %23
  %26 = load ptr, ptr %10, align 8, !tbaa !9
  %27 = load i8, ptr %26, align 1, !tbaa !13
  %28 = sext i8 %27 to i32
  %29 = icmp eq i32 %28, 124
  br i1 %29, label %30, label %33

30:                                               ; preds = %25
  %31 = load i32, ptr %11, align 4, !tbaa !20
  %32 = add i32 %31, 1
  store i32 %32, ptr %11, align 4, !tbaa !20
  br label %54

33:                                               ; preds = %25
  %34 = load ptr, ptr %7, align 8, !tbaa !9
  %35 = load ptr, ptr %10, align 8, !tbaa !9
  %36 = load i32, ptr %11, align 4, !tbaa !20
  %37 = zext i32 %36 to i64
  %38 = call i32 @memcmp(ptr noundef %34, ptr noundef %35, i64 noundef %37) #10
  %39 = icmp eq i32 %38, 0
  br i1 %39, label %40, label %53

40:                                               ; preds = %33
  %41 = load ptr, ptr %9, align 8, !tbaa !9
  %42 = load ptr, ptr %7, align 8, !tbaa !9
  %43 = load i32, ptr %11, align 4, !tbaa !20
  %44 = zext i32 %43 to i64
  call void @llvm.memcpy.p0.p0.i64(ptr align 1 %41, ptr align 1 %42, i64 %44, i1 false)
  %45 = load ptr, ptr %9, align 8, !tbaa !9
  %46 = load i32, ptr %11, align 4, !tbaa !20
  %47 = zext i32 %46 to i64
  %48 = getelementptr inbounds nuw i8, ptr %45, i64 %47
  store i8 0, ptr %48, align 1, !tbaa !13
  %49 = load ptr, ptr %7, align 8, !tbaa !9
  %50 = load i32, ptr %11, align 4, !tbaa !20
  %51 = zext i32 %50 to i64
  %52 = getelementptr inbounds nuw i8, ptr %49, i64 %51
  store ptr %52, ptr %5, align 8
  store i32 1, ptr %12, align 4
  br label %67

53:                                               ; preds = %33
  br label %54

54:                                               ; preds = %53, %30
  br label %55

55:                                               ; preds = %54
  %56 = load i32, ptr %11, align 4, !tbaa !20
  %57 = load ptr, ptr %10, align 8, !tbaa !9
  %58 = zext i32 %56 to i64
  %59 = getelementptr inbounds nuw i8, ptr %57, i64 %58
  store ptr %59, ptr %10, align 8, !tbaa !9
  br label %13

60:                                               ; preds = %23
  %61 = load ptr, ptr %6, align 8, !tbaa !4
  %62 = load ptr, ptr %6, align 8, !tbaa !4
  %63 = load ptr, ptr %7, align 8, !tbaa !9
  %64 = call ptr (ptr, ptr, ...) @lua_pushfstring(ptr noundef %62, ptr noundef @.str.25, ptr noundef %63)
  %65 = call i32 @luaL_argerror(ptr noundef %61, i32 noundef 1, ptr noundef %64)
  %66 = load ptr, ptr %7, align 8, !tbaa !9
  store ptr %66, ptr %5, align 8
  store i32 1, ptr %12, align 4
  br label %67

67:                                               ; preds = %60, %40
  call void @llvm.lifetime.end.p0(i64 4, ptr %11) #9
  call void @llvm.lifetime.end.p0(i64 8, ptr %10) #9
  %68 = load ptr, ptr %5, align 8
  ret ptr %68
}

; Function Attrs: nounwind uwtable
define internal i64 @l_checktime(ptr noundef %0, i32 noundef %1) #0 {
  %3 = alloca ptr, align 8
  %4 = alloca i32, align 4
  %5 = alloca i64, align 8
  store ptr %0, ptr %3, align 8, !tbaa !4
  store i32 %1, ptr %4, align 4, !tbaa !20
  call void @llvm.lifetime.start.p0(i64 8, ptr %5) #9
  %6 = load ptr, ptr %3, align 8, !tbaa !4
  %7 = load i32, ptr %4, align 4, !tbaa !20
  %8 = call i64 @luaL_checkinteger(ptr noundef %6, i32 noundef %7)
  store i64 %8, ptr %5, align 8, !tbaa !30
  %9 = load i64, ptr %5, align 8, !tbaa !30
  %10 = load i64, ptr %5, align 8, !tbaa !30
  %11 = icmp eq i64 %9, %10
  %12 = zext i1 %11 to i32
  %13 = icmp ne i32 %12, 0
  %14 = zext i1 %13 to i32
  %15 = sext i32 %14 to i64
  %16 = call i64 @llvm.expect.i64(i64 %15, i64 1)
  %17 = icmp ne i64 %16, 0
  br i1 %17, label %22, label %18

18:                                               ; preds = %2
  %19 = load ptr, ptr %3, align 8, !tbaa !4
  %20 = load i32, ptr %4, align 4, !tbaa !20
  %21 = call i32 @luaL_argerror(ptr noundef %19, i32 noundef %20, ptr noundef @.str.14)
  br label %22

22:                                               ; preds = %18, %2
  %23 = load i64, ptr %5, align 8, !tbaa !30
  call void @llvm.lifetime.end.p0(i64 8, ptr %5) #9
  ret i64 %23
}

; Function Attrs: nounwind uwtable
define internal i32 @os_date(ptr noundef %0) #0 {
  %2 = alloca i32, align 4
  %3 = alloca ptr, align 8
  %4 = alloca i64, align 8
  %5 = alloca ptr, align 8
  %6 = alloca i64, align 8
  %7 = alloca ptr, align 8
  %8 = alloca %struct.tm, align 8
  %9 = alloca ptr, align 8
  %10 = alloca i32, align 4
  %11 = alloca [4 x i8], align 1
  %12 = alloca %struct.luaL_Buffer, align 8
  %13 = alloca i64, align 8
  %14 = alloca ptr, align 8
  store ptr %0, ptr %3, align 8, !tbaa !4
  call void @llvm.lifetime.start.p0(i64 8, ptr %4) #9
  call void @llvm.lifetime.start.p0(i64 8, ptr %5) #9
  %15 = load ptr, ptr %3, align 8, !tbaa !4
  %16 = call ptr @luaL_optlstring(ptr noundef %15, i32 noundef 1, ptr noundef @.str.11, ptr noundef %4)
  store ptr %16, ptr %5, align 8, !tbaa !9
  call void @llvm.lifetime.start.p0(i64 8, ptr %6) #9
  %17 = load ptr, ptr %3, align 8, !tbaa !4
  %18 = call i32 @lua_type(ptr noundef %17, i32 noundef 2)
  %19 = icmp sle i32 %18, 0
  br i1 %19, label %20, label %22

20:                                               ; preds = %1
  %21 = call i64 @time(ptr noundef null) #9
  br label %25

22:                                               ; preds = %1
  %23 = load ptr, ptr %3, align 8, !tbaa !4
  %24 = call i64 @l_checktime(ptr noundef %23, i32 noundef 2)
  br label %25

25:                                               ; preds = %22, %20
  %26 = phi i64 [ %21, %20 ], [ %24, %22 ]
  store i64 %26, ptr %6, align 8, !tbaa !11
  call void @llvm.lifetime.start.p0(i64 8, ptr %7) #9
  %27 = load ptr, ptr %5, align 8, !tbaa !9
  %28 = load i64, ptr %4, align 8, !tbaa !11
  %29 = getelementptr inbounds nuw i8, ptr %27, i64 %28
  store ptr %29, ptr %7, align 8, !tbaa !9
  call void @llvm.lifetime.start.p0(i64 56, ptr %8) #9
  call void @llvm.lifetime.start.p0(i64 8, ptr %9) #9
  %30 = load ptr, ptr %5, align 8, !tbaa !9
  %31 = load i8, ptr %30, align 1, !tbaa !13
  %32 = sext i8 %31 to i32
  %33 = icmp eq i32 %32, 33
  br i1 %33, label %34, label %38

34:                                               ; preds = %25
  %35 = call ptr @gmtime_r(ptr noundef %6, ptr noundef %8) #9
  store ptr %35, ptr %9, align 8, !tbaa !14
  %36 = load ptr, ptr %5, align 8, !tbaa !9
  %37 = getelementptr inbounds nuw i8, ptr %36, i32 1
  store ptr %37, ptr %5, align 8, !tbaa !9
  br label %40

38:                                               ; preds = %25
  %39 = call ptr @localtime_r(ptr noundef %6, ptr noundef %8) #9
  store ptr %39, ptr %9, align 8, !tbaa !14
  br label %40

40:                                               ; preds = %38, %34
  %41 = load ptr, ptr %9, align 8, !tbaa !14
  %42 = icmp eq ptr %41, null
  br i1 %42, label %43, label %46

43:                                               ; preds = %40
  %44 = load ptr, ptr %3, align 8, !tbaa !4
  %45 = call i32 (ptr, ptr, ...) @luaL_error(ptr noundef %44, ptr noundef @.str.12)
  store i32 %45, ptr %2, align 4
  store i32 1, ptr %10, align 4
  br label %109

46:                                               ; preds = %40
  %47 = load ptr, ptr %5, align 8, !tbaa !9
  %48 = call i32 @strcmp(ptr noundef %47, ptr noundef @.str.13) #10
  %49 = icmp eq i32 %48, 0
  br i1 %49, label %50, label %54

50:                                               ; preds = %46
  %51 = load ptr, ptr %3, align 8, !tbaa !4
  call void @lua_createtable(ptr noundef %51, i32 noundef 0, i32 noundef 9)
  %52 = load ptr, ptr %3, align 8, !tbaa !4
  %53 = load ptr, ptr %9, align 8, !tbaa !14
  call void @setallfields(ptr noundef %52, ptr noundef %53)
  br label %108

54:                                               ; preds = %46
  call void @llvm.lifetime.start.p0(i64 4, ptr %11) #9
  call void @llvm.lifetime.start.p0(i64 1056, ptr %12) #9
  %55 = getelementptr inbounds [4 x i8], ptr %11, i64 0, i64 0
  store i8 37, ptr %55, align 1, !tbaa !13
  %56 = load ptr, ptr %3, align 8, !tbaa !4
  call void @luaL_buffinit(ptr noundef %56, ptr noundef %12)
  br label %57

57:                                               ; preds = %106, %54
  %58 = load ptr, ptr %5, align 8, !tbaa !9
  %59 = load ptr, ptr %7, align 8, !tbaa !9
  %60 = icmp ult ptr %58, %59
  br i1 %60, label %61, label %107

61:                                               ; preds = %57
  %62 = load ptr, ptr %5, align 8, !tbaa !9
  %63 = load i8, ptr %62, align 1, !tbaa !13
  %64 = sext i8 %63 to i32
  %65 = icmp ne i32 %64, 37
  br i1 %65, label %66, label %84

66:                                               ; preds = %61
  %67 = getelementptr inbounds nuw %struct.luaL_Buffer, ptr %12, i32 0, i32 2
  %68 = load i64, ptr %67, align 8, !tbaa !16
  %69 = getelementptr inbounds nuw %struct.luaL_Buffer, ptr %12, i32 0, i32 1
  %70 = load i64, ptr %69, align 8, !tbaa !18
  %71 = icmp ult i64 %68, %70
  br i1 %71, label %74, label %72

72:                                               ; preds = %66
  %73 = call ptr @luaL_prepbuffsize(ptr noundef %12, i64 noundef 1)
  br label %74

74:                                               ; preds = %72, %66
  %75 = load ptr, ptr %5, align 8, !tbaa !9
  %76 = getelementptr inbounds nuw i8, ptr %75, i32 1
  store ptr %76, ptr %5, align 8, !tbaa !9
  %77 = load i8, ptr %75, align 1, !tbaa !13
  %78 = getelementptr inbounds nuw %struct.luaL_Buffer, ptr %12, i32 0, i32 0
  %79 = load ptr, ptr %78, align 8, !tbaa !19
  %80 = getelementptr inbounds nuw %struct.luaL_Buffer, ptr %12, i32 0, i32 2
  %81 = load i64, ptr %80, align 8, !tbaa !16
  %82 = add i64 %81, 1
  store i64 %82, ptr %80, align 8, !tbaa !16
  %83 = getelementptr inbounds nuw i8, ptr %79, i64 %81
  store i8 %77, ptr %83, align 1, !tbaa !13
  br label %106

84:                                               ; preds = %61
  call void @llvm.lifetime.start.p0(i64 8, ptr %13) #9
  call void @llvm.lifetime.start.p0(i64 8, ptr %14) #9
  %85 = call ptr @luaL_prepbuffsize(ptr noundef %12, i64 noundef 250)
  store ptr %85, ptr %14, align 8, !tbaa !9
  %86 = load ptr, ptr %5, align 8, !tbaa !9
  %87 = getelementptr inbounds nuw i8, ptr %86, i32 1
  store ptr %87, ptr %5, align 8, !tbaa !9
  %88 = load ptr, ptr %3, align 8, !tbaa !4
  %89 = load ptr, ptr %5, align 8, !tbaa !9
  %90 = load ptr, ptr %7, align 8, !tbaa !9
  %91 = load ptr, ptr %5, align 8, !tbaa !9
  %92 = ptrtoint ptr %90 to i64
  %93 = ptrtoint ptr %91 to i64
  %94 = sub i64 %92, %93
  %95 = getelementptr inbounds [4 x i8], ptr %11, i64 0, i64 0
  %96 = getelementptr inbounds i8, ptr %95, i64 1
  %97 = call ptr @checkoption(ptr noundef %88, ptr noundef %89, i64 noundef %94, ptr noundef %96)
  store ptr %97, ptr %5, align 8, !tbaa !9
  %98 = load ptr, ptr %14, align 8, !tbaa !9
  %99 = getelementptr inbounds [4 x i8], ptr %11, i64 0, i64 0
  %100 = load ptr, ptr %9, align 8, !tbaa !14
  %101 = call i64 @strftime(ptr noundef %98, i64 noundef 250, ptr noundef %99, ptr noundef %100) #9
  store i64 %101, ptr %13, align 8, !tbaa !11
  %102 = load i64, ptr %13, align 8, !tbaa !11
  %103 = getelementptr inbounds nuw %struct.luaL_Buffer, ptr %12, i32 0, i32 2
  %104 = load i64, ptr %103, align 8, !tbaa !16
  %105 = add i64 %104, %102
  store i64 %105, ptr %103, align 8, !tbaa !16
  call void @llvm.lifetime.end.p0(i64 8, ptr %14) #9
  call void @llvm.lifetime.end.p0(i64 8, ptr %13) #9
  br label %106

106:                                              ; preds = %84, %74
  br label %57

107:                                              ; preds = %57
  call void @luaL_pushresult(ptr noundef %12)
  call void @llvm.lifetime.end.p0(i64 1056, ptr %12) #9
  call void @llvm.lifetime.end.p0(i64 4, ptr %11) #9
  br label %108

108:                                              ; preds = %107, %50
  store i32 1, ptr %2, align 4
  store i32 1, ptr %10, align 4
  br label %109

109:                                              ; preds = %108, %43
  call void @llvm.lifetime.end.p0(i64 8, ptr %9) #9
  call void @llvm.lifetime.end.p0(i64 56, ptr %8) #9
  call void @llvm.lifetime.end.p0(i64 8, ptr %7) #9
  call void @llvm.lifetime.end.p0(i64 8, ptr %6) #9
  call void @llvm.lifetime.end.p0(i64 8, ptr %5) #9
  call void @llvm.lifetime.end.p0(i64 8, ptr %4) #9
  %110 = load i32, ptr %2, align 4
  ret i32 %110
}