; Function Attrs: nounwind uwtable
define internal i32 @os_date(ptr noundef %0) #0 {
  %2 = alloca i64, align 8
  %3 = alloca i64, align 8
  %4 = alloca %struct.tm, align 8
  %5 = alloca [4 x i8], align 1
  %6 = alloca %struct.luaL_Buffer, align 8
  call void @llvm.lifetime.start.p0(i64 8, ptr nonnull %2) #12
  %7 = call ptr @luaL_optlstring(ptr noundef %0, i32 noundef 1, ptr noundef nonnull @.str.11, ptr noundef nonnull %2) #12
  call void @llvm.lifetime.start.p0(i64 8, ptr nonnull %3) #12
  %8 = call i32 @lua_type(ptr noundef %0, i32 noundef 2) #12
  %9 = icmp slt i32 %8, 1
  br i1 %9, label %10, label %12

10:                                               ; preds = %1
  %11 = call i64 @time(ptr noundef null) #12
  br label %14

12:                                               ; preds = %1
  %13 = call i64 @luaL_checkinteger(ptr noundef %0, i32 noundef 2) #12
  br label %14

14:                                               ; preds = %12, %10
  %15 = phi i64 [ %11, %10 ], [ %13, %12 ]
  store i64 %15, ptr %3, align 8, !tbaa !4
  %16 = load i64, ptr %2, align 8, !tbaa !4
  %17 = getelementptr inbounds nuw i8, ptr %7, i64 %16
  call void @llvm.lifetime.start.p0(i64 56, ptr nonnull %4) #12
  %18 = load i8, ptr %7, align 1, !tbaa !8
  %19 = icmp eq i8 %18, 33
  br i1 %19, label %20, label %23

20:                                               ; preds = %14
  %21 = call ptr @gmtime_r(ptr noundef nonnull %3, ptr noundef nonnull %4) #12
  %22 = getelementptr inbounds nuw i8, ptr %7, i64 1
  br label %25

23:                                               ; preds = %14
  %24 = call ptr @localtime_r(ptr noundef nonnull %3, ptr noundef nonnull %4) #12
  br label %25

25:                                               ; preds = %23, %20
  %.026 = phi ptr [ %21, %20 ], [ %24, %23 ]
  %.025 = phi ptr [ %22, %20 ], [ %7, %23 ]
  %26 = icmp eq ptr %.026, null
  br i1 %26, label %27, label %sub_0

27:                                               ; preds = %25
  %28 = call i32 (ptr, ptr, ...) @luaL_error(ptr noundef %0, ptr noundef nonnull @.str.12) #12
  br label %86

sub_0:                                            ; preds = %25
  %29 = load i8, ptr %.025, align 1
  %.not30 = icmp eq i8 %29, 42
  br i1 %.not30, label %sub_1, label %.tail.thread

sub_1:                                            ; preds = %sub_0
  %30 = getelementptr inbounds nuw i8, ptr %.025, i64 1
  %31 = load i8, ptr %30, align 1
  %.not31 = icmp eq i8 %31, 116
  br i1 %.not31, label %.tail, label %.tail.thread

.tail:                                            ; preds = %sub_1
  %32 = getelementptr inbounds nuw i8, ptr %.025, i64 2
  %33 = load i8, ptr %32, align 1
  %34 = icmp eq i8 %33, 0
  br i1 %34, label %35, label %.tail.thread

35:                                               ; preds = %.tail
  call void @lua_createtable(ptr noundef %0, i32 noundef 0, i32 noundef 9) #12
  call fastcc void @setallfields(ptr noundef %0, ptr noundef %.026)
  br label %86

.tail.thread:                                     ; preds = %sub_1, %sub_0, %.tail
  call void @llvm.lifetime.start.p0(i64 4, ptr nonnull %5) #12
  call void @llvm.lifetime.start.p0(i64 1056, ptr nonnull %6) #12
  store i8 37, ptr %5, align 1, !tbaa !8
  call void @luaL_buffinit(ptr noundef %0, ptr noundef nonnull %6) #12
  %36 = icmp ult ptr %.025, %17
  br i1 %36, label %.lr.ph, label %._crit_edge

.lr.ph:                                           ; preds = %.tail.thread
  %37 = getelementptr inbounds nuw i8, ptr %6, i64 16
  %38 = getelementptr inbounds nuw i8, ptr %6, i64 8
  %39 = ptrtoint ptr %17 to i64
  %40 = getelementptr inbounds nuw i8, ptr %5, i64 1
  br label %41

41:                                               ; preds = %.lr.ph, %84
  %.129 = phi ptr [ %.025, %.lr.ph ], [ %.2, %84 ]
  %42 = load i8, ptr %.129, align 1, !tbaa !8
  %.not = icmp eq i8 %42, 37
  br i1 %.not, label %56, label %43

43:                                               ; preds = %41
  %44 = load i64, ptr %37, align 8, !tbaa !9
  %45 = load i64, ptr %38, align 8, !tbaa !14
  %46 = icmp ult i64 %44, %45
  br i1 %46, label %49, label %47

47:                                               ; preds = %43
  %48 = call ptr @luaL_prepbuffsize(ptr noundef nonnull %6, i64 noundef 1) #12
  %.pre = load i8, ptr %.129, align 1, !tbaa !8
  %.pre33 = load i64, ptr %37, align 8, !tbaa !9
  br label %49

49:                                               ; preds = %47, %43
  %50 = phi i64 [ %.pre33, %47 ], [ %44, %43 ]
  %51 = phi i8 [ %.pre, %47 ], [ %42, %43 ]
  %52 = getelementptr inbounds nuw i8, ptr %.129, i64 1
  %53 = load ptr, ptr %6, align 8, !tbaa !15
  %54 = add i64 %50, 1
  store i64 %54, ptr %37, align 8, !tbaa !9
  %55 = getelementptr inbounds nuw i8, ptr %53, i64 %50
  store i8 %51, ptr %55, align 1, !tbaa !8
  br label %84

56:                                               ; preds = %41
  %57 = call ptr @luaL_prepbuffsize(ptr noundef nonnull %6, i64 noundef 250) #12
  %58 = getelementptr inbounds nuw i8, ptr %.129, i64 1
  %59 = ptrtoint ptr %58 to i64
  %60 = sub i64 %39, %59
  %61 = icmp sgt i64 %60, 0
  br i1 %61, label %.lr.ph.i, label %._crit_edge.i

.lr.ph.i:                                         ; preds = %56, %72
  %62 = phi i64 [ %73, %72 ], [ 1, %56 ]
  %63 = phi i8 [ %75, %72 ], [ 97, %56 ]
  %.027.i = phi i32 [ %.1.i, %72 ], [ 1, %56 ]
  %.02126.i = phi ptr [ %74, %72 ], [ @.str.24, %56 ]
  %64 = icmp eq i8 %63, 124
  br i1 %64, label %65, label %67

65:                                               ; preds = %.lr.ph.i
  %66 = add i32 %.027.i, 1
  br label %72

67:                                               ; preds = %.lr.ph.i
  %bcmp.i = call i32 @bcmp(ptr nonnull %58, ptr nonnull %.02126.i, i64 %62)
  %68 = icmp eq i32 %bcmp.i, 0
  br i1 %68, label %69, label %72

69:                                               ; preds = %67
  call void @llvm.memcpy.p0.p0.i64(ptr nonnull align 1 %40, ptr nonnull align 1 %58, i64 %62, i1 false)
  %70 = getelementptr inbounds nuw i8, ptr %40, i64 %62
  store i8 0, ptr %70, align 1, !tbaa !8
  %71 = getelementptr inbounds nuw i8, ptr %58, i64 %62
  br label %checkoption.exit

72:                                               ; preds = %67, %65
  %.1.i = phi i32 [ %66, %65 ], [ %.027.i, %67 ]
  %73 = zext i32 %.1.i to i64
  %74 = getelementptr inbounds nuw i8, ptr %.02126.i, i64 %73
  %75 = load i8, ptr %74, align 1, !tbaa !8
  %76 = icmp ne i8 %75, 0
  %77 = icmp samesign uge i64 %60, %73
  %78 = and i1 %76, %77
  br i1 %78, label %.lr.ph.i, label %._crit_edge.i

._crit_edge.i:                                    ; preds = %72, %56
  %79 = call ptr (ptr, ptr, ...) @lua_pushfstring(ptr noundef %0, ptr noundef nonnull @.str.25, ptr noundef nonnull %58) #12
  %80 = call i32 @luaL_argerror(ptr noundef %0, i32 noundef 1, ptr noundef %79) #12
  br label %checkoption.exit

checkoption.exit:                                 ; preds = %69, %._crit_edge.i
  %.022.i = phi ptr [ %71, %69 ], [ %58, %._crit_edge.i ]
  %81 = call i64 @strftime(ptr noundef %57, i64 noundef 250, ptr noundef nonnull %5, ptr noundef nonnull %.026) #12
  %82 = load i64, ptr %37, align 8, !tbaa !9
  %83 = add i64 %82, %81
  store i64 %83, ptr %37, align 8, !tbaa !9
  br label %84

84:                                               ; preds = %checkoption.exit, %49
  %.2 = phi ptr [ %52, %49 ], [ %.022.i, %checkoption.exit ]
  %85 = icmp ult ptr %.2, %17
  br i1 %85, label %41, label %._crit_edge

._crit_edge:                                      ; preds = %84, %.tail.thread
  call void @luaL_pushresult(ptr noundef nonnull %6) #12
  call void @llvm.lifetime.end.p0(i64 1056, ptr nonnull %6) #12
  call void @llvm.lifetime.end.p0(i64 4, ptr nonnull %5) #12
  br label %86

86:                                               ; preds = %35, %._crit_edge, %27
  %.0 = phi i32 [ %28, %27 ], [ 1, %._crit_edge ], [ 1, %35 ]
  call void @llvm.lifetime.end.p0(i64 56, ptr nonnull %4) #12
  call void @llvm.lifetime.end.p0(i64 8, ptr nonnull %3) #12
  call void @llvm.lifetime.end.p0(i64 8, ptr nonnull %2) #12
  ret i32 %.0
}